target datalayout = "e-m:e-p270:32:32-p271:32:32-p272:64:64-i64:64-i128:128-f80:128-n8:16:32:64-S128"
target triple = "x86_64-pc-linux-gnu"

%"class.std::ios_base::Init" = type { i8 }
%struct.__va_list_tag = type { i32, i32, ptr, ptr }

$_ZN2cv9videostab4ILogD2Ev = comdat any

$_ZN2cv9videostab11LogToStdoutD0Ev = comdat any

$_ZTIN2cv9videostab4ILogE = comdat any

$_ZTSN2cv9videostab4ILogE = comdat any

@_ZStL8__ioinit = internal global %"class.std::ios_base::Init" zeroinitializer, align 1
@__dso_handle = external hidden global i8
@stdout = external global ptr, align 8
@_ZTVN2cv9videostab11LogToStdoutE = unnamed_addr constant { [5 x ptr] } { [5 x ptr] [ptr null, ptr @_ZTIN2cv9videostab11LogToStdoutE, ptr @_ZN2cv9videostab4ILogD2Ev, ptr @_ZN2cv9videostab11LogToStdoutD0Ev, ptr @_ZN2cv9videostab11LogToStdout5printEPKcz] }, align 8
@_ZTIN2cv9videostab11LogToStdoutE = constant { ptr, ptr, ptr } { ptr getelementptr inbounds (ptr, ptr @_ZTVN10__cxxabiv120__si_class_type_infoE, i64 2), ptr @_ZTSN2cv9videostab11LogToStdoutE, ptr @_ZTIN2cv9videostab4ILogE }, align 8
@_ZTVN10__cxxabiv120__si_class_type_infoE = external global [0 x ptr]
@_ZTSN2cv9videostab11LogToStdoutE = constant [29 x i8] c"N2cv9videostab11LogToStdoutE\00", align 1
@_ZTIN2cv9videostab4ILogE = linkonce_odr constant { ptr, ptr } { ptr getelementptr inbounds (ptr, ptr @_ZTVN10__cxxabiv117__class_type_infoE, i64 2), ptr @_ZTSN2cv9videostab4ILogE }, comdat, align 8
@_ZTVN10__cxxabiv117__class_type_infoE = external global [0 x ptr]
@_ZTSN2cv9videostab4ILogE = linkonce_odr constant [21 x i8] c"N2cv9videostab4ILogE\00", comdat, align 1
@llvm.global_ctors = appending global [1 x { i32, ptr, ptr }] [{ i32, ptr, ptr } { i32 65535, ptr @_GLOBAL__sub_I_log.cpp, ptr null }]

; Function Attrs: uwtable
define internal void @__cxx_global_var_init() #0 section ".text.startup" {
  call void @_ZNSt8ios_base4InitC1Ev(ptr noundef nonnull align 1 dereferenceable(1) @_ZStL8__ioinit)
  %1 = call i32 @__cxa_atexit(ptr @_ZNSt8ios_base4InitD1Ev, ptr @_ZStL8__ioinit, ptr @__dso_handle) #3
  ret void
}

declare void @_ZNSt8ios_base4InitC1Ev(ptr noundef nonnull align 1 dereferenceable(1)) unnamed_addr #1

; Function Attrs: nounwind
declare void @_ZNSt8ios_base4InitD1Ev(ptr noundef nonnull align 1 dereferenceable(1)) unnamed_addr #2

; Function Attrs: nounwind
declare i32 @__cxa_atexit(ptr, ptr, ptr) #3

; Function Attrs: mustprogress uwtable
define void @_ZN2cv9videostab11LogToStdout5printEPKcz(ptr noundef nonnull align 8 dereferenceable(8) %0, ptr noundef %1, ...) unnamed_addr #4 align 2 {
  %3 = alloca ptr, align 8
  %4 = alloca ptr, align 8
  %5 = alloca [1 x %struct.__va_list_tag], align 16
  store ptr %0, ptr %3, align 8, !tbaa !3
  store ptr %1, ptr %4, align 8, !tbaa !8
  call void @llvm.lifetime.start.p0(i64 24, ptr %5) #3
  %6 = getelementptr inbounds [1 x %struct.__va_list_tag], ptr %5, i64 0, i64 0
  call void @llvm.va_start.p0(ptr %6)
  %7 = load ptr, ptr %4, align 8, !tbaa !8
  %8 = getelementptr inbounds [1 x %struct.__va_list_tag], ptr %5, i64 0, i64 0
  %9 = call i32 @vprintf(ptr noundef %7, ptr noundef %8) #3
  %10 = load ptr, ptr @stdout, align 8, !tbaa !10
  %11 = call i32 @fflush(ptr noundef %10)
  %12 = getelementptr inbounds [1 x %struct.__va_list_tag], ptr %5, i64 0, i64 0
  call void @llvm.va_end.p0(ptr %12)
  call void @llvm.lifetime.end.p0(i64 24, ptr %5) #3
  ret void
}

; Function Attrs: nocallback nofree nosync nounwind willreturn memory(argmem: readwrite)
declare void @llvm.lifetime.start.p0(i64 immarg, ptr captures(none)) #5

; Function Attrs: nocallback nofree nosync nounwind willreturn
declare void @llvm.va_start.p0(ptr) #6

; Function Attrs: inlinehint mustprogress nounwind uwtable
define available_externally i32 @vprintf(ptr noalias noundef %0, ptr noundef %1) #7 {
  %3 = alloca ptr, align 8
  %4 = alloca ptr, align 8
  store ptr %0, ptr %3, align 8, !tbaa !8
  store ptr %1, ptr %4, align 8, !tbaa !12
  %5 = load ptr, ptr @stdout, align 8, !tbaa !10
  %6 = load ptr, ptr %3, align 8, !tbaa !8
  %7 = load ptr, ptr %4, align 8, !tbaa !12
  %8 = call i32 @vfprintf(ptr noundef %5, ptr noundef %6, ptr noundef %7) #3
  ret i32 %8
}

declare i32 @fflush(ptr noundef) #1

; Function Attrs: nocallback nofree nosync nounwind willreturn
declare void @llvm.va_end.p0(ptr) #6

; Function Attrs: nocallback nofree nosync nounwind willreturn memory(argmem: readwrite)
declare void @llvm.lifetime.end.p0(i64 immarg, ptr captures(none)) #5

; Function Attrs: mustprogress nounwind uwtable
define linkonce_odr hidden void @_ZN2cv9videostab4ILogD2Ev(ptr noundef nonnull align 8 dereferenceable(8) %0) unnamed_addr #8 comdat align 2 {
  %2 = alloca ptr, align 8
  store ptr %0, ptr %2, align 8, !tbaa !14
  ret void
}

; Function Attrs: inlinehint mustprogress nounwind uwtable
define linkonce_odr hidden void @_ZN2cv9videostab11LogToStdoutD0Ev(ptr noundef nonnull align 8 dereferenceable(8) %0) unnamed_addr #7 comdat align 2 {
  %2 = alloca ptr, align 8
  store ptr %0, ptr %2, align 8, !tbaa !3
  %3 = load ptr, ptr %2, align 8
  call void @_ZN2cv9videostab4ILogD2Ev(ptr noundef nonnull align 8 dereferenceable(8) %3) #3
  call void @_ZdlPv(ptr noundef %3) #10
  ret void
}

; Function Attrs: nounwind
declare i32 @vfprintf(ptr noundef, ptr noundef, ptr noundef) #2

; Function Attrs: nobuiltin nounwind
declare void @_ZdlPv(ptr noundef) #9

; Function Attrs: uwtable
define internal void @_GLOBAL__sub_I_log.cpp() #0 section ".text.startup" {
  call void @__cxx_global_var_init()
  ret void
}


!llvm.module.flags = !{!0, !1, !2}

!0 = !{i32 1, !"wchar_size", i32 4}
!1 = !{i32 8, !"PIC Level", i32 2}
!2 = !{i32 7, !"uwtable", i32 2}
!3 = !{!4, !4, i64 0}
!4 = !{!"p1 _ZTSN2cv9videostab11LogToStdoutE", !5, i64 0}
!5 = !{!"any pointer", !6, i64 0}
!6 = !{!"omnipotent char", !7, i64 0}
!7 = !{!"Simple C++ TBAA"}
!8 = !{!9, !9, i64 0}
!9 = !{!"p1 omnipotent char", !5, i64 0}
!10 = !{!11, !11, i64 0}
!11 = !{!"p1 _ZTS8_IO_FILE", !5, i64 0}
!12 = !{!13, !13, i64 0}
!13 = !{!"p1 _ZTS13__va_list_tag", !5, i64 0}
!14 = !{!15, !15, i64 0}
!15 = !{!"p1 _ZTSN2cv9videostab4ILogE", !5, i64 0}
